target datalayout = "e-m:e-p270:32:32-p271:32:32-p272:64:64-i64:64-i128:128-f80:128-n8:16:32:64-S128"
target triple = "x86_64-unknown-linux-gnu"

%"class.OpenImageIO_v2_6_0::span.100" = type { ptr, i64 }
%"class.OpenImageIO_v2_6_0::span.99" = type { ptr, i64 }

; Function Attrs: mustprogress nounwind uwtable
define linkonce_odr hidden noundef nonnull align 1 dereferenceable(1) ptr @_ZNK18OpenImageIO_v2_6_04spanIhLln1EEixEl(ptr noundef nonnull align 8 dereferenceable(16) %this, i64 noundef %idx) #4 comdat align 2 {
entry:
  %this.addr = alloca ptr, align 8
  %idx.addr = alloca i64, align 8
  store ptr %this, ptr %this.addr, align 8
  store i64 %idx, ptr %idx.addr, align 8
  %this1 = load ptr, ptr %this.addr, align 8
  %m_data = getelementptr inbounds %"class.OpenImageIO_v2_6_0::span.99", ptr %this1, i32 0, i32 0
  %0 = load ptr, ptr %m_data, align 8
  %1 = load i64, ptr %idx.addr, align 8
  %arrayidx = getelementptr inbounds i8, ptr %0, i64 %1
  ret ptr %arrayidx
}

; Function Attrs: mustprogress nounwind uwtable
define linkonce_odr hidden noundef nonnull align 1 dereferenceable(1) ptr @_ZNK18OpenImageIO_v2_6_04spanIKhLln1EEixEl(ptr noundef nonnull align 8 dereferenceable(16) %this, i64 noundef %idx) #4 comdat align 2 {
entry:
  %this.addr = alloca ptr, align 8
  %idx.addr = alloca i64, align 8
  store ptr %this, ptr %this.addr, align 8
  store i64 %idx, ptr %idx.addr, align 8
  %this1 = load ptr, ptr %this.addr, align 8
  %m_data = getelementptr inbounds %"class.OpenImageIO_v2_6_0::span.100", ptr %this1, i32 0, i32 0
  %0 = load ptr, ptr %m_data, align 8
  %1 = load i64, ptr %idx.addr, align 8
  %arrayidx = getelementptr inbounds i8, ptr %0, i64 %1
  ret ptr %arrayidx
}

; Function Attrs: mustprogress uwtable
define hidden noundef zeroext i1 @_ZNK18OpenImageIO_v2_6_08PSDInput13bitmap_to_rgbENS_4spanIhLln1EEENS1_IKhLln1EEEi(ptr noundef nonnull align 8 dereferenceable(840) %this, ptr %dst.coerce0, i64 %dst.coerce1, ptr %src.coerce0, i64 %src.coerce1, i32 noundef %width) #6 align 2 {
entry:
  %dst = alloca %"class.OpenImageIO_v2_6_0::span.99", align 8
  %src = alloca %"class.OpenImageIO_v2_6_0::span.100", align 8
  %this.addr = alloca ptr, align 8
  %width.addr = alloca i32, align 4
  %i = alloca i32, align 4
  %byte = alloca i32, align 4
  %bit = alloca i32, align 4
  %result = alloca i8, align 1
  %0 = getelementptr inbounds { ptr, i64 }, ptr %dst, i32 0, i32 0
  store ptr %dst.coerce0, ptr %0, align 8
  %1 = getelementptr inbounds { ptr, i64 }, ptr %dst, i32 0, i32 1
  store i64 %dst.coerce1, ptr %1, align 8
  %2 = getelementptr inbounds { ptr, i64 }, ptr %src, i32 0, i32 0
  store ptr %src.coerce0, ptr %2, align 8
  %3 = getelementptr inbounds { ptr, i64 }, ptr %src, i32 0, i32 1
  store i64 %src.coerce1, ptr %3, align 8
  store ptr %this, ptr %this.addr, align 8
  store i32 %width, ptr %width.addr, align 4
  store i32 0, ptr %i, align 4
  br label %for.cond

for.cond:                                         ; preds = %for.inc, %entry
  %4 = load i32, ptr %i, align 4
  %5 = load i32, ptr %width.addr, align 4
  %cmp = icmp slt i32 %4, %5
  br i1 %cmp, label %for.body, label %for.end

for.body:                                         ; preds = %for.cond
  %6 = load i32, ptr %i, align 4
  %div = sdiv i32 %6, 8
  store i32 %div, ptr %byte, align 4
  %7 = load i32, ptr %i, align 4
  %rem = srem i32 %7, 8
  %sub = sub nsw i32 7, %rem
  store i32 %sub, ptr %bit, align 4
  %8 = load i32, ptr %byte, align 4
  %conv = sext i32 %8 to i64
  %call = call noundef nonnull align 1 dereferenceable(1) ptr @_ZNK18OpenImageIO_v2_6_04spanIKhLln1EEixEl(ptr noundef nonnull align 8 dereferenceable(16) %src, i64 noundef %conv)
  %9 = load i8, ptr %call, align 1
  %conv2 = zext i8 %9 to i32
  %10 = load i32, ptr %bit, align 4
  %shl = shl i32 1, %10
  %and = and i32 %conv2, %shl
  %tobool = icmp ne i32 %and, 0
  %cond = select i1 %tobool, i32 0, i32 255
  %conv3 = trunc i32 %cond to i8
  store i8 %conv3, ptr %result, align 1
  %11 = load i8, ptr %result, align 1
  %12 = load i32, ptr %i, align 4
  %mul = mul nsw i32 %12, 3
  %add = add nsw i32 %mul, 0
  %conv4 = sext i32 %add to i64
  %call5 = call noundef nonnull align 1 dereferenceable(1) ptr @_ZNK18OpenImageIO_v2_6_04spanIhLln1EEixEl(ptr noundef nonnull align 8 dereferenceable(16) %dst, i64 noundef %conv4)
  store i8 %11, ptr %call5, align 1
  %13 = load i8, ptr %result, align 1
  %14 = load i32, ptr %i, align 4
  %mul6 = mul nsw i32 %14, 3
  %add7 = add nsw i32 %mul6, 1
  %conv8 = sext i32 %add7 to i64
  %call9 = call noundef nonnull align 1 dereferenceable(1) ptr @_ZNK18OpenImageIO_v2_6_04spanIhLln1EEixEl(ptr noundef nonnull align 8 dereferenceable(16) %dst, i64 noundef %conv8)
  store i8 %13, ptr %call9, align 1
  %15 = load i8, ptr %result, align 1
  %16 = load i32, ptr %i, align 4
  %mul10 = mul nsw i32 %16, 3
  %add11 = add nsw i32 %mul10, 2
  %conv12 = sext i32 %add11 to i64
  %call13 = call noundef nonnull align 1 dereferenceable(1) ptr @_ZNK18OpenImageIO_v2_6_04spanIhLln1EEixEl(ptr noundef nonnull align 8 dereferenceable(16) %dst, i64 noundef %conv12)
  store i8 %15, ptr %call13, align 1
  br label %for.inc

for.inc:                                          ; preds = %for.body
  %17 = load i32, ptr %i, align 4
  %inc = add nsw i32 %17, 1
  store i32 %inc, ptr %i, align 4
  br label %for.cond, !llvm.loop !51

for.end:                                          ; preds = %for.cond
  ret i1 true
}