; Function Attrs: mustprogress nofree norecurse nosync nounwind memory(argmem: readwrite) uwtable
define hidden noundef zeroext i1 @_ZNK18OpenImageIO_v2_6_08PSDInput13bitmap_to_rgbENS_4spanIhLln1EEENS1_IKhLln1EEEi(ptr nocapture noundef nonnull readnone align 8 dereferenceable(840) %this, ptr nocapture writeonly %dst.coerce0, i64 %dst.coerce1, ptr nocapture readonly %src.coerce0, i64 %src.coerce1, i32 noundef %width) local_unnamed_addr #14 align 2 {
entry:
  %invariant.gep = getelementptr i8, ptr %dst.coerce0, i64 1
  %invariant.gep15 = getelementptr i8, ptr %dst.coerce0, i64 2
  %cmp17 = icmp sgt i32 %width, 0
  br i1 %cmp17, label %for.body.preheader, label %for.end

for.body.preheader:                               ; preds = %entry
  %wide.trip.count = zext nneg i32 %width to i64
  br label %for.body

for.body:                                         ; preds = %for.body.preheader, %for.body
  %indvars.iv = phi i64 [ 0, %for.body.preheader ], [ %indvars.iv.next, %for.body ]
  %0 = trunc i64 %indvars.iv to i32
  %div9 = lshr i64 %indvars.iv, 3
  %rem = and i32 %0, 7
  %sub = xor i32 %rem, 7
  %conv = and i64 %div9, 536870911
  %arrayidx.i = getelementptr inbounds i8, ptr %src.coerce0, i64 %conv
  %1 = load i8, ptr %arrayidx.i, align 1
  %conv2 = zext i8 %1 to i32
  %shl = shl nuw nsw i32 1, %sub
  %and = and i32 %shl, %conv2
  %tobool.not = icmp eq i32 %and, 0
  %conv3 = sext i1 %tobool.not to i8
  %2 = mul nuw nsw i64 %indvars.iv, 3
  %arrayidx.i10 = getelementptr inbounds i8, ptr %dst.coerce0, i64 %2
  store i8 %conv3, ptr %arrayidx.i10, align 1
  %gep = getelementptr i8, ptr %invariant.gep, i64 %2
  store i8 %conv3, ptr %gep, align 1
  %gep16 = getelementptr i8, ptr %invariant.gep15, i64 %2
  store i8 %conv3, ptr %gep16, align 1
  %indvars.iv.next = add nuw nsw i64 %indvars.iv, 1
  %exitcond.not = icmp eq i64 %indvars.iv.next, %wide.trip.count
  br i1 %exitcond.not, label %for.end, label %for.body, !llvm.loop !70

for.end:                                          ; preds = %for.body, %entry
  ret i1 true
}